target datalayout = "e-m:e-p270:32:32-p271:32:32-p272:64:64-i64:64-i128:128-f80:128-n8:16:32:64-S128"
target triple = "x86_64-pc-linux-gnu"

@.str.1 = private unnamed_addr constant [19 x i8] c"fcntl(%d, F_SETFL)\00", align 1
@.str.3 = private unnamed_addr constant [19 x i8] c"fcntl(%d, F_SETFD)\00", align 1

; Function Attrs: nounwind uwtable
define internal i32 @evutil_fast_socket_nonblocking(i32 noundef %0) #0 {
  %2 = alloca i32, align 4
  %3 = alloca i32, align 4
  store i32 %0, ptr %3, align 4
  %4 = load i32, ptr %3, align 4
  %5 = call i32 (i32, i32, ...) @fcntl(i32 noundef %4, i32 noundef 4, i32 noundef 2048)
  %6 = icmp eq i32 %5, -1
  br i1 %6, label %7, label %9

7:                                                ; preds = %1
  %8 = load i32, ptr %3, align 4
  call void (ptr, ...) @event_warn(ptr noundef @.str.1, i32 noundef %8)
  store i32 -1, ptr %2, align 4
  br label %10

9:                                                ; preds = %1
  store i32 0, ptr %2, align 4
  br label %10

10:                                               ; preds = %9, %7
  %11 = load i32, ptr %2, align 4
  ret i32 %11
}

; Function Attrs: nounwind uwtable
define i32 @evutil_closesocket(i32 noundef %0) #0 {
  %2 = alloca i32, align 4
  store i32 %0, ptr %2, align 4
  %3 = load i32, ptr %2, align 4
  %4 = call i32 @close(i32 noundef %3)
  ret i32 %4
}

; Function Attrs: nounwind uwtable
define internal i32 @evutil_fast_socket_closeonexec(i32 noundef %0) #0 {
  %2 = alloca i32, align 4
  %3 = alloca i32, align 4
  store i32 %0, ptr %3, align 4
  %4 = load i32, ptr %3, align 4
  %5 = call i32 (i32, i32, ...) @fcntl(i32 noundef %4, i32 noundef 2, i32 noundef 1)
  %6 = icmp eq i32 %5, -1
  br i1 %6, label %7, label %9

7:                                                ; preds = %1
  %8 = load i32, ptr %3, align 4
  call void (ptr, ...) @event_warn(ptr noundef @.str.3, i32 noundef %8)
  store i32 -1, ptr %2, align 4
  br label %10

9:                                                ; preds = %1
  store i32 0, ptr %2, align 4
  br label %10

10:                                               ; preds = %9, %7
  %11 = load i32, ptr %2, align 4
  ret i32 %11
}

; Function Attrs: nounwind uwtable
define hidden i32 @evutil_eventfd_(i32 noundef %0, i32 noundef %1) #0 {
  %3 = alloca i32, align 4
  %4 = alloca i32, align 4
  %5 = alloca i32, align 4
  %6 = alloca i32, align 4
  %7 = alloca i32, align 4
  store i32 %0, ptr %4, align 4
  store i32 %1, ptr %5, align 4
  call void @llvm.lifetime.start.p0(i64 4, ptr %6) #11
  %8 = load i32, ptr %4, align 4
  %9 = load i32, ptr %5, align 4
  %10 = call i32 @eventfd(i32 noundef %8, i32 noundef %9) #11
  store i32 %10, ptr %6, align 4
  %11 = load i32, ptr %6, align 4
  %12 = icmp sge i32 %11, 0
  br i1 %12, label %16, label %13

13:                                               ; preds = %2
  %14 = load i32, ptr %5, align 4
  %15 = icmp eq i32 %14, 0
  br i1 %15, label %16, label %18

16:                                               ; preds = %13, %2
  %17 = load i32, ptr %6, align 4
  store i32 %17, ptr %3, align 4
  store i32 1, ptr %7, align 4
  br label %51

18:                                               ; preds = %13
  %19 = load i32, ptr %4, align 4
  %20 = call i32 @eventfd(i32 noundef %19, i32 noundef 0) #11
  store i32 %20, ptr %6, align 4
  %21 = load i32, ptr %6, align 4
  %22 = icmp slt i32 %21, 0
  br i1 %22, label %23, label %25

23:                                               ; preds = %18
  %24 = load i32, ptr %6, align 4
  store i32 %24, ptr %3, align 4
  store i32 1, ptr %7, align 4
  br label %51

25:                                               ; preds = %18
  %26 = load i32, ptr %5, align 4
  %27 = and i32 %26, 524288
  %28 = icmp ne i32 %27, 0
  br i1 %28, label %29, label %37

29:                                               ; preds = %25
  %30 = load i32, ptr %6, align 4
  %31 = call i32 @evutil_fast_socket_closeonexec(i32 noundef %30)
  %32 = icmp slt i32 %31, 0
  br i1 %32, label %33, label %36

33:                                               ; preds = %29
  %34 = load i32, ptr %6, align 4
  %35 = call i32 @evutil_closesocket(i32 noundef %34)
  store i32 -1, ptr %3, align 4
  store i32 1, ptr %7, align 4
  br label %51

36:                                               ; preds = %29
  br label %37

37:                                               ; preds = %36, %25
  %38 = load i32, ptr %5, align 4
  %39 = and i32 %38, 2048
  %40 = icmp ne i32 %39, 0
  br i1 %40, label %41, label %49

41:                                               ; preds = %37
  %42 = load i32, ptr %6, align 4
  %43 = call i32 @evutil_fast_socket_nonblocking(i32 noundef %42)
  %44 = icmp slt i32 %43, 0
  br i1 %44, label %45, label %48

45:                                               ; preds = %41
  %46 = load i32, ptr %6, align 4
  %47 = call i32 @evutil_closesocket(i32 noundef %46)
  store i32 -1, ptr %3, align 4
  store i32 1, ptr %7, align 4
  br label %51

48:                                               ; preds = %41
  br label %49

49:                                               ; preds = %48, %37
  %50 = load i32, ptr %6, align 4
  store i32 %50, ptr %3, align 4
  store i32 1, ptr %7, align 4
  br label %51

51:                                               ; preds = %49, %45, %33, %23, %16
  call void @llvm.lifetime.end.p0(i64 4, ptr %6) #11
  %52 = load i32, ptr %3, align 4
  ret i32 %52
}