; Function Attrs: nounwind uwtable
define hidden i32 @evutil_eventfd_(i32 noundef %0, i32 noundef %1) local_unnamed_addr #0 {
  %3 = tail call i32 @eventfd(i32 noundef %0, i32 noundef %1) #30
  %4 = icmp sgt i32 %3, -1
  %5 = icmp eq i32 %1, 0
  %or.cond = or i1 %5, %4
  br i1 %or.cond, label %evutil_fast_socket_nonblocking.exit, label %6

6:                                                ; preds = %2
  %7 = tail call i32 @eventfd(i32 noundef %0, i32 noundef 0) #30
  %8 = icmp slt i32 %7, 0
  br i1 %8, label %evutil_fast_socket_nonblocking.exit, label %9

9:                                                ; preds = %6
  %10 = and i32 %1, 524288
  %.not = icmp eq i32 %10, 0
  br i1 %.not, label %evutil_fast_socket_closeonexec.exit, label %11

11:                                               ; preds = %9
  %12 = tail call i32 (i32, i32, ...) @fcntl(i32 noundef %7, i32 noundef 2, i32 noundef 1) #30
  %13 = icmp eq i32 %12, -1
  br i1 %13, label %evutil_fast_socket_nonblocking.exit.sink.split, label %evutil_fast_socket_closeonexec.exit

evutil_fast_socket_closeonexec.exit:              ; preds = %11, %9
  %14 = and i32 %1, 2048
  %.not19 = icmp eq i32 %14, 0
  br i1 %.not19, label %evutil_fast_socket_nonblocking.exit, label %15

15:                                               ; preds = %evutil_fast_socket_closeonexec.exit
  %16 = tail call i32 (i32, i32, ...) @fcntl(i32 noundef %7, i32 noundef 4, i32 noundef 2048) #30
  %17 = icmp eq i32 %16, -1
  br i1 %17, label %evutil_fast_socket_nonblocking.exit.sink.split, label %evutil_fast_socket_nonblocking.exit

evutil_fast_socket_nonblocking.exit.sink.split:   ; preds = %15, %11
  %.str.1.sink = phi ptr [ @.str.3, %11 ], [ @.str.1, %15 ]
  tail call void (ptr, ...) @event_warn(ptr noundef nonnull %.str.1.sink, i32 noundef %7) #30
  %18 = tail call i32 @close(i32 noundef %7) #30
  br label %evutil_fast_socket_nonblocking.exit

evutil_fast_socket_nonblocking.exit:              ; preds = %evutil_fast_socket_nonblocking.exit.sink.split, %15, %evutil_fast_socket_closeonexec.exit, %6, %2
  %.0 = phi i32 [ %3, %2 ], [ %7, %6 ], [ %7, %evutil_fast_socket_closeonexec.exit ], [ %7, %15 ], [ -1, %evutil_fast_socket_nonblocking.exit.sink.split ]
  ret i32 %.0
}